; Function Attrs: mustprogress uwtable
define void @_ZNK6icu_7715RBBISymbolTable14parseReferenceERKNS_13UnicodeStringERNS_13ParsePositionEi(ptr dead_on_unwind noalias writable sret(%"class.icu_77::UnicodeString") align 8 initializes((0, 10)) %0, ptr nonnull readnone align 8 captures(none) %1, ptr noundef nonnull align 8 dereferenceable(64) %2, ptr noundef nonnull align 8 captures(none) dereferenceable(16) %3, i32 noundef %4) unnamed_addr #1 align 2 personality ptr @__gxx_personality_v0 {
  %6 = getelementptr inbounds nuw i8, ptr %3, i64 8
  %7 = load i32, ptr %6, align 8, !tbaa !40
  store ptr getelementptr inbounds nuw inrange(-16, 88) (i8, ptr @_ZTVN6icu_7713UnicodeStringE, i64 16), ptr %0, align 8, !tbaa !15
  %8 = getelementptr inbounds nuw i8, ptr %0, i64 8
  store i16 2, ptr %8, align 8, !tbaa !42
  %9 = getelementptr inbounds nuw i8, ptr %2, i64 8
  %10 = getelementptr inbounds nuw i8, ptr %2, i64 12
  %11 = getelementptr inbounds nuw i8, ptr %2, i64 10
  %12 = getelementptr inbounds nuw i8, ptr %2, i64 24
  %13 = sext i32 %7 to i64
  %smax = tail call i32 @llvm.smax.i32(i32 %7, i32 %4)
  %wide.trip.count = sext i32 %smax to i64
  br label %14

14:                                               ; preds = %37, %5
  %indvars.iv = phi i64 [ %indvars.iv.next, %37 ], [ %13, %5 ]
  %15 = trunc nsw i64 %indvars.iv to i32
  %exitcond.not = icmp eq i64 %indvars.iv, %wide.trip.count
  br i1 %exitcond.not, label %.thread, label %16

16:                                               ; preds = %14
  %17 = load i16, ptr %9, align 8, !tbaa !42
  %18 = icmp slt i16 %17, 0
  %19 = ashr i16 %17, 5
  %20 = sext i16 %19 to i32
  %21 = load i32, ptr %10, align 4
  %22 = select i1 %18, i32 %21, i32 %20
  %23 = icmp ugt i32 %22, %15
  br i1 %23, label %24, label %_ZNK6icu_7713UnicodeString6charAtEi.exit

24:                                               ; preds = %16
  %25 = and i16 %17, 2
  %.not.i.i.i = icmp eq i16 %25, 0
  %26 = load ptr, ptr %12, align 8
  %27 = select i1 %.not.i.i.i, ptr %26, ptr %11
  %28 = getelementptr inbounds i16, ptr %27, i64 %indvars.iv
  %29 = load i16, ptr %28, align 2, !tbaa !43
  %30 = zext i16 %29 to i32
  br label %_ZNK6icu_7713UnicodeString6charAtEi.exit

_ZNK6icu_7713UnicodeString6charAtEi.exit:         ; preds = %24, %16
  %.0.i.i = phi i32 [ %30, %24 ], [ 65535, %16 ]
  %31 = icmp eq i64 %indvars.iv, %13
  br i1 %31, label %32, label %35

32:                                               ; preds = %_ZNK6icu_7713UnicodeString6charAtEi.exit
  %33 = invoke signext i8 @u_isIDStart_77(i32 noundef %.0.i.i)
          to label %34 unwind label %38

34:                                               ; preds = %32
  %.not = icmp eq i8 %33, 0
  br i1 %.not, label %.thread, label %35

35:                                               ; preds = %34, %_ZNK6icu_7713UnicodeString6charAtEi.exit
  %36 = invoke signext i8 @u_isIDPart_77(i32 noundef %.0.i.i)
          to label %37 unwind label %38

37:                                               ; preds = %35
  %.not26 = icmp eq i8 %36, 0
  %indvars.iv.next = add nsw i64 %indvars.iv, 1
  br i1 %.not26, label %.thread, label %14

38:                                               ; preds = %35, %32
  %39 = landingpad { ptr, i32 }
          cleanup
  br label %48

.thread:                                          ; preds = %37, %34, %14
  %.023.lcssa = phi i32 [ %15, %37 ], [ %15, %34 ], [ %smax, %14 ]
  %40 = icmp eq i32 %.023.lcssa, %7
  br i1 %40, label %47, label %41

41:                                               ; preds = %.thread
  store i32 %.023.lcssa, ptr %6, align 8, !tbaa !40
  %42 = load ptr, ptr %2, align 8, !tbaa !15
  %43 = getelementptr inbounds nuw i8, ptr %42, i64 24
  %44 = load ptr, ptr %43, align 8
  invoke void %44(ptr noundef nonnull align 8 dereferenceable(64) %2, i32 noundef %7, i32 noundef %.023.lcssa, ptr noundef nonnull align 8 dereferenceable(64) %0)
          to label %47 unwind label %45

45:                                               ; preds = %41
  %46 = landingpad { ptr, i32 }
          cleanup
  br label %48

47:                                               ; preds = %.thread, %41
  ret void

48:                                               ; preds = %45, %38
  %.pn = phi { ptr, i32 } [ %46, %45 ], [ %39, %38 ]
  tail call void @_ZN6icu_7713UnicodeStringD1Ev(ptr noundef nonnull align 8 dereferenceable(64) %0) #13
  resume { ptr, i32 } %.pn
}